target datalayout = "e-m:e-p270:32:32-p271:32:32-p272:64:64-i64:64-i128:128-f80:128-n8:16:32:64-S128"
target triple = "x86_64-pc-linux-gnu"

@_ZN6google14LogDestination24terminal_supports_color_E = hidden global i8 0, align 1
@stderr = external global ptr, align 8
@.str.22 = private unnamed_addr constant [1 x i8] zeroinitializer, align 1
@stdout = external global ptr, align 8
@_ZN3fLI21FLAGS_stderrthresholdE = external global i32, align 4
@_ZN3fLB22FLAGS_colorlogtostderrE = external global i8, align 1
@_ZN3fLB22FLAGS_colorlogtostdoutE = external global i8, align 1
@.str.102 = private unnamed_addr constant [9 x i8] c"\1B[0;3%sm\00", align 1
@.str.103 = private unnamed_addr constant [4 x i8] c"\1B[m\00", align 1
@.str.104 = private unnamed_addr constant [2 x i8] c"1\00", align 1
@.str.105 = private unnamed_addr constant [2 x i8] c"2\00", align 1
@.str.106 = private unnamed_addr constant [2 x i8] c"3\00", align 1

; Function Attrs: mustprogress nounwind uwtable
define internal noundef ptr @_ZN6googleL16GetAnsiColorCodeENS_9GLogColorE(i32 noundef %0) #2 {
  %2 = alloca ptr, align 8
  %3 = alloca i32, align 4
  store i32 %0, ptr %3, align 4, !tbaa !433
  %4 = load i32, ptr %3, align 4, !tbaa !433
  switch i32 %4, label %9 [
    i32 1, label %5
    i32 2, label %6
    i32 3, label %7
    i32 0, label %8
  ]

5:                                                ; preds = %1
  store ptr @.str.104, ptr %2, align 8
  br label %10

6:                                                ; preds = %1
  store ptr @.str.105, ptr %2, align 8
  br label %10

7:                                                ; preds = %1
  store ptr @.str.106, ptr %2, align 8
  br label %10

8:                                                ; preds = %1
  store ptr @.str.22, ptr %2, align 8
  br label %10

9:                                                ; preds = %1
  store ptr null, ptr %2, align 8
  br label %10

10:                                               ; preds = %9, %8, %7, %6, %5
  %11 = load ptr, ptr %2, align 8
  ret ptr %11
}

; Function Attrs: mustprogress nounwind uwtable
define internal noundef i32 @_ZN6googleL15SeverityToColorENS_11LogSeverityE(i32 noundef %0) #2 {
  %2 = alloca i32, align 4
  %3 = alloca i32, align 4
  store i32 %0, ptr %3, align 4, !tbaa !51
  %4 = load i32, ptr %3, align 4, !tbaa !51
  switch i32 %4, label %8 [
    i32 0, label %5
    i32 1, label %6
    i32 2, label %7
    i32 3, label %7
  ]

5:                                                ; preds = %1
  store i32 0, ptr %2, align 4
  br label %9

6:                                                ; preds = %1
  store i32 3, ptr %2, align 4
  br label %9

7:                                                ; preds = %1, %1
  store i32 1, ptr %2, align 4
  br label %9

8:                                                ; preds = %1
  unreachable

9:                                                ; preds = %7, %6, %5
  %10 = load i32, ptr %2, align 4
  ret i32 %10
}

; Function Attrs: mustprogress nounwind uwtable
define linkonce_odr hidden noundef nonnull align 1 dereferenceable(1) ptr @_ZN6google14LogDestination23terminal_supports_colorEv() #2 comdat align 2 {
  ret ptr @_ZN6google14LogDestination24terminal_supports_color_E
}

; Function Attrs: mustprogress uwtable
define internal void @_ZN6googleL28ColoredWriteToStderrOrStdoutEP8_IO_FILENS_11LogSeverityEPKcm(ptr noundef %0, i32 noundef %1, ptr noundef %2, i64 noundef %3) #0 {
  %5 = alloca ptr, align 8
  %6 = alloca i32, align 4
  %7 = alloca ptr, align 8
  %8 = alloca i64, align 8
  %9 = alloca i8, align 1
  %10 = alloca i32, align 4
  %11 = alloca i32, align 4
  store ptr %0, ptr %5, align 8, !tbaa !187
  store i32 %1, ptr %6, align 4, !tbaa !51
  store ptr %2, ptr %7, align 8, !tbaa !9
  store i64 %3, ptr %8, align 8, !tbaa !13
  call void @llvm.lifetime.start.p0(i64 1, ptr %9) #5
  %12 = load ptr, ptr %5, align 8, !tbaa !187
  %13 = load ptr, ptr @stdout, align 8, !tbaa !187
  %14 = icmp eq ptr %12, %13
  %15 = zext i1 %14 to i8
  store i8 %15, ptr %9, align 1, !tbaa !76
  call void @llvm.lifetime.start.p0(i64 4, ptr %10) #5
  %16 = call noundef nonnull align 1 dereferenceable(1) ptr @_ZN6google14LogDestination23terminal_supports_colorEv()
  %17 = load i8, ptr %16, align 1, !tbaa !76, !range !78, !noundef !79
  %18 = trunc i8 %17 to i1
  br i1 %18, label %19, label %34

19:                                               ; preds = %4
  %20 = load i8, ptr %9, align 1, !tbaa !76, !range !78, !noundef !79
  %21 = trunc i8 %20 to i1
  br i1 %21, label %25, label %22

22:                                               ; preds = %19
  %23 = load i8, ptr @_ZN3fLB22FLAGS_colorlogtostderrE, align 1, !tbaa !76, !range !78, !noundef !79
  %24 = trunc i8 %23 to i1
  br i1 %24, label %31, label %25

25:                                               ; preds = %22, %19
  %26 = load i8, ptr %9, align 1, !tbaa !76, !range !78, !noundef !79
  %27 = trunc i8 %26 to i1
  br i1 %27, label %28, label %34

28:                                               ; preds = %25
  %29 = load i8, ptr @_ZN3fLB22FLAGS_colorlogtostdoutE, align 1, !tbaa !76, !range !78, !noundef !79
  %30 = trunc i8 %29 to i1
  br i1 %30, label %31, label %34

31:                                               ; preds = %28, %22
  %32 = load i32, ptr %6, align 4, !tbaa !51
  %33 = call noundef i32 @_ZN6googleL15SeverityToColorENS_11LogSeverityE(i32 noundef %32)
  br label %35

34:                                               ; preds = %28, %25, %4
  br label %35

35:                                               ; preds = %34, %31
  %36 = phi i32 [ %33, %31 ], [ 0, %34 ]
  store i32 %36, ptr %10, align 4, !tbaa !433
  %37 = load i32, ptr %10, align 4, !tbaa !433
  %38 = icmp eq i32 0, %37
  br i1 %38, label %39, label %44

39:                                               ; preds = %35
  %40 = load ptr, ptr %7, align 8, !tbaa !9
  %41 = load i64, ptr %8, align 8, !tbaa !13
  %42 = load ptr, ptr %5, align 8, !tbaa !187
  %43 = call i64 @fwrite(ptr noundef %40, i64 noundef %41, i64 noundef 1, ptr noundef %42)
  store i32 1, ptr %11, align 4
  br label %55

44:                                               ; preds = %35
  %45 = load ptr, ptr %5, align 8, !tbaa !187
  %46 = load i32, ptr %10, align 4, !tbaa !433
  %47 = call noundef ptr @_ZN6googleL16GetAnsiColorCodeENS_9GLogColorE(i32 noundef %46)
  %48 = call i32 (ptr, ptr, ...) @fprintf(ptr noundef %45, ptr noundef @.str.102, ptr noundef %47) #5
  %49 = load ptr, ptr %7, align 8, !tbaa !9
  %50 = load i64, ptr %8, align 8, !tbaa !13
  %51 = load ptr, ptr %5, align 8, !tbaa !187
  %52 = call i64 @fwrite(ptr noundef %49, i64 noundef %50, i64 noundef 1, ptr noundef %51)
  %53 = load ptr, ptr %5, align 8, !tbaa !187
  %54 = call i32 (ptr, ptr, ...) @fprintf(ptr noundef %53, ptr noundef @.str.103) #5
  store i32 0, ptr %11, align 4
  br label %55

55:                                               ; preds = %44, %39
  call void @llvm.lifetime.end.p0(i64 4, ptr %10) #5
  call void @llvm.lifetime.end.p0(i64 1, ptr %9) #5
  %56 = load i32, ptr %11, align 4
  switch i32 %56, label %58 [
    i32 0, label %57
    i32 1, label %57
  ]

57:                                               ; preds = %55, %55
  ret void

58:                                               ; preds = %55
  unreachable
}

; Function Attrs: mustprogress uwtable
define internal void @_ZN6googleL20ColoredWriteToStdoutENS_11LogSeverityEPKcm(i32 noundef %0, ptr noundef %1, i64 noundef %2) #0 {
  %4 = alloca i32, align 4
  %5 = alloca ptr, align 8
  %6 = alloca i64, align 8
  %7 = alloca ptr, align 8
  store i32 %0, ptr %4, align 4, !tbaa !51
  store ptr %1, ptr %5, align 8, !tbaa !9
  store i64 %2, ptr %6, align 8, !tbaa !13
  call void @llvm.lifetime.start.p0(i64 8, ptr %7) #5
  %8 = load ptr, ptr @stdout, align 8, !tbaa !187
  store ptr %8, ptr %7, align 8, !tbaa !187
  %9 = load i32, ptr %4, align 4, !tbaa !51
  %10 = load i32, ptr @_ZN3fLI21FLAGS_stderrthresholdE, align 4, !tbaa !11
  %11 = icmp sge i32 %9, %10
  br i1 %11, label %12, label %14

12:                                               ; preds = %3
  %13 = load ptr, ptr @stderr, align 8, !tbaa !187
  store ptr %13, ptr %7, align 8, !tbaa !187
  br label %14

14:                                               ; preds = %12, %3
  %15 = load ptr, ptr %7, align 8, !tbaa !187
  %16 = load i32, ptr %4, align 4, !tbaa !51
  %17 = load ptr, ptr %5, align 8, !tbaa !9
  %18 = load i64, ptr %6, align 8, !tbaa !13
  call void @_ZN6googleL28ColoredWriteToStderrOrStdoutEP8_IO_FILENS_11LogSeverityEPKcm(ptr noundef %15, i32 noundef %16, ptr noundef %17, i64 noundef %18)
  call void @llvm.lifetime.end.p0(i64 8, ptr %7) #5
  ret void
}