; Function Attrs: mustprogress nofree nounwind uwtable
define internal fastcc void @_ZN6googleL20ColoredWriteToStdoutENS_11LogSeverityEPKcm(i32 noundef %0, ptr noundef captures(none) %1, i64 noundef %2) unnamed_addr #26 {
  %4 = load i32, ptr @_ZN3fLI21FLAGS_stderrthresholdE, align 4, !tbaa !97
  %.not = icmp slt i32 %0, %4
  %stdout.val = load ptr, ptr @stdout, align 8
  %stderr.val = load ptr, ptr @stderr, align 8
  %.0 = select i1 %.not, ptr %stdout.val, ptr %stderr.val
  %5 = load i8, ptr @_ZN6google14LogDestination24terminal_supports_color_E, align 1, !tbaa !92, !range !93, !noundef !94
  %6 = trunc nuw i8 %5 to i1
  br i1 %6, label %7, label %16

7:                                                ; preds = %3
  %8 = icmp eq ptr %.0, %stdout.val
  br i1 %8, label %.critedge.i, label %9

9:                                                ; preds = %7
  %10 = load i8, ptr @_ZN3fLB22FLAGS_colorlogtostderrE, align 1, !tbaa !92, !range !93, !noundef !94
  %11 = trunc nuw i8 %10 to i1
  br i1 %11, label %14, label %16

.critedge.i:                                      ; preds = %7
  %12 = load i8, ptr @_ZN3fLB22FLAGS_colorlogtostdoutE, align 1, !tbaa !92, !range !93, !noundef !94
  %13 = trunc nuw i8 %12 to i1
  br i1 %13, label %14, label %16

14:                                               ; preds = %.critedge.i, %9
  switch i32 %0, label %15 [
    i32 0, label %16
    i32 1, label %_ZN6googleL16GetAnsiColorCodeENS_9GLogColorE.exit.i
    i32 2, label %_ZN6googleL15SeverityToColorENS_11LogSeverityE.exit.thread14.i
    i32 3, label %_ZN6googleL15SeverityToColorENS_11LogSeverityE.exit.thread14.i
  ]

_ZN6googleL15SeverityToColorENS_11LogSeverityE.exit.thread14.i: ; preds = %14, %14
  br label %_ZN6googleL16GetAnsiColorCodeENS_9GLogColorE.exit.i

15:                                               ; preds = %14
  unreachable

16:                                               ; preds = %14, %.critedge.i, %9, %3
  %17 = tail call i64 @fwrite(ptr noundef %1, i64 noundef %2, i64 noundef 1, ptr noundef %.0)
  br label %_ZN6googleL28ColoredWriteToStderrOrStdoutEP8_IO_FILENS_11LogSeverityEPKcm.exit

_ZN6googleL16GetAnsiColorCodeENS_9GLogColorE.exit.i: ; preds = %_ZN6googleL15SeverityToColorENS_11LogSeverityE.exit.thread14.i, %14
  %.0.i13.i = phi ptr [ @.str.104, %_ZN6googleL15SeverityToColorENS_11LogSeverityE.exit.thread14.i ], [ @.str.106, %14 ]
  %18 = tail call i32 (ptr, ptr, ...) @fprintf(ptr noundef %.0, ptr noundef nonnull @.str.102, ptr noundef nonnull %.0.i13.i) #49
  %19 = tail call i64 @fwrite(ptr noundef %1, i64 noundef %2, i64 noundef 1, ptr noundef %.0)
  %20 = tail call i64 @fwrite(ptr nonnull @.str.103, i64 3, i64 1, ptr %.0)
  br label %_ZN6googleL28ColoredWriteToStderrOrStdoutEP8_IO_FILENS_11LogSeverityEPKcm.exit

_ZN6googleL28ColoredWriteToStderrOrStdoutEP8_IO_FILENS_11LogSeverityEPKcm.exit: ; preds = %16, %_ZN6googleL16GetAnsiColorCodeENS_9GLogColorE.exit.i
  ret void
}